(dp1
S'optimizer'
p2
S'adam'
p3
sS'maxlen_c'
p4
I100
sS'dictionary'
p5
NsS'decay_c'
p6
F0
sS'lrate'
p7
F0.01
sS'batch_size'
p8
I64
sS'dataset'
p9
S'books'
p10
sS'maxlen_w'
p11
I30
sS'n_words'
p12
I20000
sS'sampleFreq'
p13
I100
sS'max_epochs'
p14
I5
sS'dispFreq'
p15
I1
sS'encoder'
p16
S'gru'
p17
sS'gclip'
p18
F10
sS'validFreq'
p19
I50000000
sS'dim'
p20
I1200
sS'use_dropout'
p21
I00
sS'dim_word'
p22
I620
sS'alpha_c'
p23
F0
sS'patience'
p24
I10
sS'decoder'
p25
S'gru_cond_simple'
p26
sS'saveFreq'
p27
I1000
sS'n_words_src'
p28
I20000
sS'dictionary_src'
p29
NsS'saveto'
p30
S'/ais/gobi3/u/rkiros/ssg/models/bissgbook_d1200_small.npz'
p31
sS'valid_batch_size'
p32
I64
sS'reload_'
p33
I00
s.